target datalayout = "e-m:e-p270:32:32-p271:32:32-p272:64:64-i64:64-i128:128-f80:128-n8:16:32:64-S128"
target triple = "x86_64-unknown-linux-gnu"

%class.anon.2 = type { ptr, ptr }

; Function Attrs: mustprogress nounwind uwtable
define internal noundef zeroext i1 @"_ZZN5arrow8internal14DetectIntWidthEPKlPKhlhENK3$_0clEmm"(ptr noundef nonnull align 8 dereferenceable(16) %this, i64 noundef %addend, i64 noundef %test_mask) #0 align 2 {
entry:
  %retval = alloca i1, align 1
  %this.addr = alloca ptr, align 8
  %addend.addr = alloca i64, align 8
  %test_mask.addr = alloca i64, align 8
  %mask1 = alloca i64, align 8
  %mask2 = alloca i64, align 8
  store ptr %this, ptr %this.addr, align 8
  store i64 %addend, ptr %addend.addr, align 8
  store i64 %test_mask, ptr %test_mask.addr, align 8
  %this1 = load ptr, ptr %this.addr, align 8
  %0 = getelementptr inbounds %class.anon.2, ptr %this1, i32 0, i32 0
  %1 = load ptr, ptr %0, align 8
  %2 = load ptr, ptr %1, align 8
  %arrayidx = getelementptr inbounds i64, ptr %2, i64 0
  %3 = load i64, ptr %arrayidx, align 8
  %4 = load i64, ptr %addend.addr, align 8
  %add = add i64 %3, %4
  %5 = getelementptr inbounds %class.anon.2, ptr %this1, i32 0, i32 1
  %6 = load ptr, ptr %5, align 8
  %7 = load ptr, ptr %6, align 8
  %arrayidx2 = getelementptr inbounds i8, ptr %7, i64 0
  %8 = load i8, ptr %arrayidx2, align 1
  %conv = zext i8 %8 to i32
  %cmp = icmp ne i32 %conv, 0
  %conv3 = zext i1 %cmp to i64
  %mul = mul i64 %add, %conv3
  %9 = getelementptr inbounds %class.anon.2, ptr %this1, i32 0, i32 0
  %10 = load ptr, ptr %9, align 8
  %11 = load ptr, ptr %10, align 8
  %arrayidx4 = getelementptr inbounds i64, ptr %11, i64 1
  %12 = load i64, ptr %arrayidx4, align 8
  %13 = load i64, ptr %addend.addr, align 8
  %add5 = add i64 %12, %13
  %14 = getelementptr inbounds %class.anon.2, ptr %this1, i32 0, i32 1
  %15 = load ptr, ptr %14, align 8
  %16 = load ptr, ptr %15, align 8
  %arrayidx6 = getelementptr inbounds i8, ptr %16, i64 1
  %17 = load i8, ptr %arrayidx6, align 1
  %conv7 = zext i8 %17 to i32
  %cmp8 = icmp ne i32 %conv7, 0
  %conv9 = zext i1 %cmp8 to i64
  %mul10 = mul i64 %add5, %conv9
  %or = or i64 %mul, %mul10
  %18 = getelementptr inbounds %class.anon.2, ptr %this1, i32 0, i32 0
  %19 = load ptr, ptr %18, align 8
  %20 = load ptr, ptr %19, align 8
  %arrayidx11 = getelementptr inbounds i64, ptr %20, i64 2
  %21 = load i64, ptr %arrayidx11, align 8
  %22 = load i64, ptr %addend.addr, align 8
  %add12 = add i64 %21, %22
  %23 = getelementptr inbounds %class.anon.2, ptr %this1, i32 0, i32 1
  %24 = load ptr, ptr %23, align 8
  %25 = load ptr, ptr %24, align 8
  %arrayidx13 = getelementptr inbounds i8, ptr %25, i64 2
  %26 = load i8, ptr %arrayidx13, align 1
  %conv14 = zext i8 %26 to i32
  %cmp15 = icmp ne i32 %conv14, 0
  %conv16 = zext i1 %cmp15 to i64
  %mul17 = mul i64 %add12, %conv16
  %or18 = or i64 %or, %mul17
  %27 = getelementptr inbounds %class.anon.2, ptr %this1, i32 0, i32 0
  %28 = load ptr, ptr %27, align 8
  %29 = load ptr, ptr %28, align 8
  %arrayidx19 = getelementptr inbounds i64, ptr %29, i64 3
  %30 = load i64, ptr %arrayidx19, align 8
  %31 = load i64, ptr %addend.addr, align 8
  %add20 = add i64 %30, %31
  %32 = getelementptr inbounds %class.anon.2, ptr %this1, i32 0, i32 1
  %33 = load ptr, ptr %32, align 8
  %34 = load ptr, ptr %33, align 8
  %arrayidx21 = getelementptr inbounds i8, ptr %34, i64 3
  %35 = load i8, ptr %arrayidx21, align 1
  %conv22 = zext i8 %35 to i32
  %cmp23 = icmp ne i32 %conv22, 0
  %conv24 = zext i1 %cmp23 to i64
  %mul25 = mul i64 %add20, %conv24
  %or26 = or i64 %or18, %mul25
  store i64 %or26, ptr %mask1, align 8
  %36 = getelementptr inbounds %class.anon.2, ptr %this1, i32 0, i32 0
  %37 = load ptr, ptr %36, align 8
  %38 = load ptr, ptr %37, align 8
  %arrayidx27 = getelementptr inbounds i64, ptr %38, i64 4
  %39 = load i64, ptr %arrayidx27, align 8
  %40 = load i64, ptr %addend.addr, align 8
  %add28 = add i64 %39, %40
  %41 = getelementptr inbounds %class.anon.2, ptr %this1, i32 0, i32 1
  %42 = load ptr, ptr %41, align 8
  %43 = load ptr, ptr %42, align 8
  %arrayidx29 = getelementptr inbounds i8, ptr %43, i64 4
  %44 = load i8, ptr %arrayidx29, align 1
  %conv30 = zext i8 %44 to i32
  %cmp31 = icmp ne i32 %conv30, 0
  %conv32 = zext i1 %cmp31 to i64
  %mul33 = mul i64 %add28, %conv32
  %45 = getelementptr inbounds %class.anon.2, ptr %this1, i32 0, i32 0
  %46 = load ptr, ptr %45, align 8
  %47 = load ptr, ptr %46, align 8
  %arrayidx34 = getelementptr inbounds i64, ptr %47, i64 5
  %48 = load i64, ptr %arrayidx34, align 8
  %49 = load i64, ptr %addend.addr, align 8
  %add35 = add i64 %48, %49
  %50 = getelementptr inbounds %class.anon.2, ptr %this1, i32 0, i32 1
  %51 = load ptr, ptr %50, align 8
  %52 = load ptr, ptr %51, align 8
  %arrayidx36 = getelementptr inbounds i8, ptr %52, i64 5
  %53 = load i8, ptr %arrayidx36, align 1
  %conv37 = zext i8 %53 to i32
  %cmp38 = icmp ne i32 %conv37, 0
  %conv39 = zext i1 %cmp38 to i64
  %mul40 = mul i64 %add35, %conv39
  %or41 = or i64 %mul33, %mul40
  %54 = getelementptr inbounds %class.anon.2, ptr %this1, i32 0, i32 0
  %55 = load ptr, ptr %54, align 8
  %56 = load ptr, ptr %55, align 8
  %arrayidx42 = getelementptr inbounds i64, ptr %56, i64 6
  %57 = load i64, ptr %arrayidx42, align 8
  %58 = load i64, ptr %addend.addr, align 8
  %add43 = add i64 %57, %58
  %59 = getelementptr inbounds %class.anon.2, ptr %this1, i32 0, i32 1
  %60 = load ptr, ptr %59, align 8
  %61 = load ptr, ptr %60, align 8
  %arrayidx44 = getelementptr inbounds i8, ptr %61, i64 6
  %62 = load i8, ptr %arrayidx44, align 1
  %conv45 = zext i8 %62 to i32
  %cmp46 = icmp ne i32 %conv45, 0
  %conv47 = zext i1 %cmp46 to i64
  %mul48 = mul i64 %add43, %conv47
  %or49 = or i64 %or41, %mul48
  %63 = getelementptr inbounds %class.anon.2, ptr %this1, i32 0, i32 0
  %64 = load ptr, ptr %63, align 8
  %65 = load ptr, ptr %64, align 8
  %arrayidx50 = getelementptr inbounds i64, ptr %65, i64 7
  %66 = load i64, ptr %arrayidx50, align 8
  %67 = load i64, ptr %addend.addr, align 8
  %add51 = add i64 %66, %67
  %68 = getelementptr inbounds %class.anon.2, ptr %this1, i32 0, i32 1
  %69 = load ptr, ptr %68, align 8
  %70 = load ptr, ptr %69, align 8
  %arrayidx52 = getelementptr inbounds i8, ptr %70, i64 7
  %71 = load i8, ptr %arrayidx52, align 1
  %conv53 = zext i8 %71 to i32
  %cmp54 = icmp ne i32 %conv53, 0
  %conv55 = zext i1 %cmp54 to i64
  %mul56 = mul i64 %add51, %conv55
  %or57 = or i64 %or49, %mul56
  store i64 %or57, ptr %mask2, align 8
  %72 = getelementptr inbounds %class.anon.2, ptr %this1, i32 0, i32 1
  %73 = load ptr, ptr %72, align 8
  %74 = load ptr, ptr %73, align 8
  %add.ptr = getelementptr inbounds i8, ptr %74, i64 8
  store ptr %add.ptr, ptr %73, align 8
  %75 = getelementptr inbounds %class.anon.2, ptr %this1, i32 0, i32 0
  %76 = load ptr, ptr %75, align 8
  %77 = load ptr, ptr %76, align 8
  %add.ptr58 = getelementptr inbounds i64, ptr %77, i64 8
  store ptr %add.ptr58, ptr %76, align 8
  %78 = load i64, ptr %mask1, align 8
  %79 = load i64, ptr %mask2, align 8
  %or59 = or i64 %78, %79
  %80 = load i64, ptr %test_mask.addr, align 8
  %and = and i64 %or59, %80
  %cmp60 = icmp ne i64 %and, 0
  %lnot = xor i1 %cmp60, true
  %lnot61 = xor i1 %lnot, true
  br i1 %lnot61, label %if.then, label %if.else

if.then:                                          ; preds = %entry
  %81 = getelementptr inbounds %class.anon.2, ptr %this1, i32 0, i32 1
  %82 = load ptr, ptr %81, align 8
  %83 = load ptr, ptr %82, align 8
  %add.ptr63 = getelementptr inbounds i8, ptr %83, i64 -8
  store ptr %add.ptr63, ptr %82, align 8
  %84 = getelementptr inbounds %class.anon.2, ptr %this1, i32 0, i32 0
  %85 = load ptr, ptr %84, align 8
  %86 = load ptr, ptr %85, align 8
  %add.ptr64 = getelementptr inbounds i64, ptr %86, i64 -8
  store ptr %add.ptr64, ptr %85, align 8
  store i1 false, ptr %retval, align 1
  br label %return

if.else:                                          ; preds = %entry
  store i1 true, ptr %retval, align 1
  br label %return

return:                                           ; preds = %if.else, %if.then
  %87 = load i1, ptr %retval, align 1
  ret i1 %87
}