; Function Attrs: mustprogress nofree norecurse nosync nounwind willreturn memory(readwrite, inaccessiblemem: none) uwtable
define internal fastcc noundef zeroext i1 @"_ZZN5arrow8internal14DetectIntWidthEPKlPKhlhENK3$_0clEmm"(ptr nocapture noundef nonnull readonly align 8 dereferenceable(16) %this, i64 noundef %addend, i64 noundef %test_mask) unnamed_addr #3 align 2 {
entry:
  %0 = load ptr, ptr %this, align 8
  %1 = load ptr, ptr %0, align 8
  %2 = getelementptr inbounds i8, ptr %this, i64 8
  %3 = load ptr, ptr %2, align 8
  %4 = load ptr, ptr %3, align 8
  %5 = load <8 x i64>, ptr %1, align 8
  %6 = insertelement <8 x i64> poison, i64 %addend, i64 0
  %7 = shufflevector <8 x i64> %6, <8 x i64> poison, <8 x i32> zeroinitializer
  %8 = add <8 x i64> %5, %7
  %9 = load <8 x i8>, ptr %4, align 1
  %10 = icmp eq <8 x i8> %9, zeroinitializer
  %11 = select <8 x i1> %10, <8 x i64> zeroinitializer, <8 x i64> %8
  %add.ptr = getelementptr inbounds i8, ptr %4, i64 8
  store ptr %add.ptr, ptr %3, align 8
  %12 = load ptr, ptr %this, align 8
  %13 = load ptr, ptr %12, align 8
  %add.ptr58 = getelementptr inbounds i8, ptr %13, i64 64
  store ptr %add.ptr58, ptr %12, align 8
  %14 = tail call i64 @llvm.vector.reduce.or.v8i64(<8 x i64> %11)
  %and = and i64 %14, %test_mask
  %cmp60.not = icmp eq i64 %and, 0
  br i1 %cmp60.not, label %return, label %if.then

if.then:                                          ; preds = %entry
  %15 = load ptr, ptr %2, align 8
  %16 = load ptr, ptr %15, align 8
  %add.ptr63 = getelementptr inbounds i8, ptr %16, i64 -8
  store ptr %add.ptr63, ptr %15, align 8
  %17 = load ptr, ptr %this, align 8
  %18 = load ptr, ptr %17, align 8
  %add.ptr64 = getelementptr inbounds i8, ptr %18, i64 -64
  store ptr %add.ptr64, ptr %17, align 8
  br label %return

return:                                           ; preds = %entry, %if.then
  ret i1 %cmp60.not
}